; Function Attrs: nounwind uwtable
define dso_local noundef ptr @ExecStorePinnedBufferHeapTuple(ptr noundef %0, ptr noundef returned captures(ret: address, provenance) %1, i32 noundef %2) local_unnamed_addr #1 {
  %4 = getelementptr inbounds nuw i8, ptr %1, i64 8
  %5 = load ptr, ptr %4, align 8
  %.not = icmp eq ptr %5, @TTSOpsBufferHeapTuple
  br i1 %.not, label %9, label %6, !prof !4

6:                                                ; preds = %3
  %7 = tail call zeroext i1 @errstart_cold(i32 noundef 21, ptr noundef null) #15
  tail call void @llvm.assume(i1 %7)
  %8 = tail call i32 (ptr, ...) @errmsg_internal(ptr noundef nonnull @.str.2) #14
  tail call void @errfinish(ptr noundef nonnull @.str.1, i32 noundef 1618, ptr noundef nonnull @__func__.ExecStorePinnedBufferHeapTuple) #14
  unreachable

9:                                                ; preds = %3
  %10 = getelementptr inbounds nuw i8, ptr %1, i64 4
  %11 = load i16, ptr %10, align 4
  %12 = and i16 %11, 4
  %.not.i = icmp eq i16 %12, 0
  br i1 %.not.i, label %18, label %13

13:                                               ; preds = %9
  %14 = getelementptr inbounds nuw i8, ptr %1, i64 64
  %15 = load ptr, ptr %14, align 8
  tail call void @heap_freetuple(ptr noundef %15) #14
  %16 = load i16, ptr %10, align 4
  %17 = and i16 %16, -5
  br label %18

18:                                               ; preds = %13, %9
  %19 = phi i16 [ %17, %13 ], [ %11, %9 ]
  %20 = and i16 %19, -3
  store i16 %20, ptr %10, align 4
  %21 = getelementptr inbounds nuw i8, ptr %1, i64 6
  store i16 0, ptr %21, align 2
  %22 = getelementptr inbounds nuw i8, ptr %1, i64 64
  store ptr %0, ptr %22, align 8
  %23 = getelementptr inbounds nuw i8, ptr %1, i64 72
  store i32 0, ptr %23, align 8
  %24 = getelementptr inbounds nuw i8, ptr %1, i64 48
  %25 = getelementptr inbounds nuw i8, ptr %0, i64 4
  tail call void @llvm.memcpy.p0.p0.i64(ptr noundef nonnull align 8 dereferenceable(6) %24, ptr noundef nonnull align 4 dereferenceable(6) %25, i64 6, i1 false)
  %26 = getelementptr inbounds nuw i8, ptr %1, i64 104
  %27 = load i32, ptr %26, align 8
  %.not23.i = icmp eq i32 %27, %2
  br i1 %.not23.i, label %31, label %28

28:                                               ; preds = %18
  %.not26.i = icmp eq i32 %27, 0
  br i1 %.not26.i, label %30, label %29

29:                                               ; preds = %28
  tail call void @ReleaseBuffer(i32 noundef %27) #14
  br label %30

30:                                               ; preds = %29, %28
  store i32 %2, ptr %26, align 8
  br label %tts_buffer_heap_store_tuple.exit

31:                                               ; preds = %18
  %.not6 = icmp eq i32 %2, 0
  br i1 %.not6, label %tts_buffer_heap_store_tuple.exit, label %32

32:                                               ; preds = %31
  tail call void @ReleaseBuffer(i32 noundef %2) #14
  br label %tts_buffer_heap_store_tuple.exit

tts_buffer_heap_store_tuple.exit:                 ; preds = %31, %32, %30
  %33 = getelementptr inbounds nuw i8, ptr %0, i64 12
  %34 = load i32, ptr %33, align 4
  %35 = getelementptr inbounds nuw i8, ptr %1, i64 56
  store i32 %34, ptr %35, align 8
  ret ptr %1
}